target datalayout = "e-m:e-p270:32:32-p271:32:32-p272:64:64-i64:64-i128:128-f80:128-n8:16:32:64-S128"
target triple = "x86_64-pc-linux-gnu"

%struct.IOStreamStdioData = type { ptr, i8, i8 }

@.str.24 = private unnamed_addr constant [29 x i8] c"Error closing datastream: %s\00", align 1

; Function Attrs: nounwind uwtable
define internal zeroext i1 @stdio_close(ptr noundef %0) #0 {
  %2 = alloca ptr, align 8
  %3 = alloca ptr, align 8
  %4 = alloca i8, align 1
  store ptr %0, ptr %2, align 8
  call void @llvm.lifetime.start.p0(i64 8, ptr %3) #11
  %5 = load ptr, ptr %2, align 8
  store ptr %5, ptr %3, align 8
  call void @llvm.lifetime.start.p0(i64 1, ptr %4) #11
  store i8 1, ptr %4, align 1
  %6 = load ptr, ptr %3, align 8
  %7 = getelementptr inbounds nuw %struct.IOStreamStdioData, ptr %6, i32 0, i32 1
  %8 = load i8, ptr %7, align 8, !range !3, !noundef !4
  %9 = trunc i8 %8 to i1
  br i1 %9, label %10, label %23

10:                                               ; preds = %1
  %11 = load ptr, ptr %3, align 8
  %12 = getelementptr inbounds nuw %struct.IOStreamStdioData, ptr %11, i32 0, i32 0
  %13 = load ptr, ptr %12, align 8
  %14 = call i32 @fclose(ptr noundef %13)
  %15 = icmp ne i32 %14, 0
  br i1 %15, label %16, label %22

16:                                               ; preds = %10
  %17 = call ptr @__errno_location() #13
  %18 = load i32, ptr %17, align 4
  %19 = call ptr @strerror(i32 noundef %18) #11
  %20 = call zeroext i1 (ptr, ...) @SDL_SetError_REAL(ptr noundef @.str.24, ptr noundef %19)
  %21 = zext i1 %20 to i8
  store i8 %21, ptr %4, align 1
  br label %22

22:                                               ; preds = %16, %10
  br label %23

23:                                               ; preds = %22, %1
  %24 = load ptr, ptr %3, align 8
  call void @SDL_free_REAL(ptr noundef %24)
  %25 = load i8, ptr %4, align 1, !range !3, !noundef !4
  %26 = trunc i8 %25 to i1
  call void @llvm.lifetime.end.p0(i64 1, ptr %4) #11
  call void @llvm.lifetime.end.p0(i64 8, ptr %3) #11
  ret i1 %26
}