; Function Attrs: nounwind uwtable
define internal zeroext i1 @stdio_close(ptr noundef %0) #0 {
  %2 = getelementptr inbounds nuw i8, ptr %0, i64 8
  %3 = load i8, ptr %2, align 8, !range !5, !noundef !6
  %4 = trunc nuw i8 %3 to i1
  br i1 %4, label %5, label %13

5:                                                ; preds = %1
  %6 = load ptr, ptr %0, align 8
  %7 = tail call i32 @fclose(ptr noundef %6)
  %.not = icmp eq i32 %7, 0
  br i1 %.not, label %13, label %8

8:                                                ; preds = %5
  %9 = tail call ptr @__errno_location() #19
  %10 = load i32, ptr %9, align 4
  %11 = tail call ptr @strerror(i32 noundef %10) #18
  %12 = tail call zeroext i1 (ptr, ...) @SDL_SetError_REAL(ptr noundef nonnull @.str.24, ptr noundef %11) #18
  br label %13

13:                                               ; preds = %5, %8, %1
  %.0 = phi i1 [ %12, %8 ], [ true, %5 ], [ true, %1 ]
  tail call void @SDL_free_REAL(ptr noundef nonnull %0) #18
  ret i1 %.0
}